target datalayout = "e-m:e-p270:32:32-p271:32:32-p272:64:64-i64:64-i128:128-f80:128-n8:16:32:64-S128"
target triple = "x86_64-pc-linux-gnu"

%struct.xlist = type { i32, i32, ptr, ptr, ptr, ptr, %union.pthread_rwlock_t, ptr, ptr, [0 x %struct.listNode] }
%union.pthread_rwlock_t = type { %struct.__pthread_rwlock_arch_t }
%struct.__pthread_rwlock_arch_t = type { i32, i32, i32, i32, i32, i32, i32, i32, i8, [7 x i8], i64, i32 }
%struct.listNode = type { ptr, ptr }
%struct.listIterator = type { i32, ptr, ptr, ptr, ptr }

@.str = private unnamed_addr constant [7 x i8] c"list.c\00", align 1
@.str.2 = private unnamed_addr constant [32 x i8] c"%s: pthread_rwlock_wrlock(): %m\00", align 1
@.str.3 = private unnamed_addr constant [32 x i8] c"%s: pthread_rwlock_unlock(): %m\00", align 1
@__func__.list_iterator_create = private unnamed_addr constant [21 x i8] c"list_iterator_create\00", align 1

; Function Attrs: nounwind uwtable
define dso_local ptr @list_iterator_create(ptr noundef %0) #0 {
  %2 = alloca ptr, align 8
  %3 = alloca ptr, align 8
  %4 = alloca i32, align 4
  %5 = alloca i32, align 4
  store ptr %0, ptr %2, align 8
  call void @llvm.lifetime.start.p0(i64 8, ptr %3) #6
  %6 = call ptr @slurm_xcalloc(i64 noundef 1, i64 noundef 40, i1 noundef zeroext true, i1 noundef zeroext false, ptr noundef @.str, i32 noundef 788, ptr noundef @__func__.list_iterator_create)
  store ptr %6, ptr %3, align 8
  %7 = load ptr, ptr %3, align 8
  %8 = getelementptr inbounds nuw %struct.listIterator, ptr %7, i32 0, i32 0
  store i32 -559038721, ptr %8, align 8
  %9 = load ptr, ptr %2, align 8
  %10 = load ptr, ptr %3, align 8
  %11 = getelementptr inbounds nuw %struct.listIterator, ptr %10, i32 0, i32 1
  store ptr %9, ptr %11, align 8
  br label %12

12:                                               ; preds = %1
  call void @llvm.lifetime.start.p0(i64 4, ptr %4) #6
  %13 = load ptr, ptr %2, align 8
  %14 = getelementptr inbounds nuw %struct.xlist, ptr %13, i32 0, i32 6
  %15 = call i32 @pthread_rwlock_wrlock(ptr noundef %14) #6
  store i32 %15, ptr %4, align 4
  %16 = load i32, ptr %4, align 4
  %17 = icmp ne i32 %16, 0
  br i1 %17, label %18, label %21

18:                                               ; preds = %12
  %19 = load i32, ptr %4, align 4
  %20 = call ptr @__errno_location() #7
  store i32 %19, ptr %20, align 4
  call void (ptr, ...) @fatal_abort(ptr noundef @.str.2, ptr noundef @__func__.list_iterator_create) #8
  unreachable

21:                                               ; preds = %12
  call void @llvm.lifetime.end.p0(i64 4, ptr %4) #6
  br label %22

22:                                               ; preds = %21
  br label %23

23:                                               ; preds = %22
  %24 = load ptr, ptr %2, align 8
  %25 = getelementptr inbounds nuw %struct.xlist, ptr %24, i32 0, i32 2
  %26 = load ptr, ptr %25, align 8
  %27 = load ptr, ptr %3, align 8
  %28 = getelementptr inbounds nuw %struct.listIterator, ptr %27, i32 0, i32 2
  store ptr %26, ptr %28, align 8
  %29 = load ptr, ptr %2, align 8
  %30 = getelementptr inbounds nuw %struct.xlist, ptr %29, i32 0, i32 2
  %31 = load ptr, ptr %3, align 8
  %32 = getelementptr inbounds nuw %struct.listIterator, ptr %31, i32 0, i32 3
  store ptr %30, ptr %32, align 8
  %33 = load ptr, ptr %2, align 8
  %34 = getelementptr inbounds nuw %struct.xlist, ptr %33, i32 0, i32 4
  %35 = load ptr, ptr %34, align 8
  %36 = load ptr, ptr %3, align 8
  %37 = getelementptr inbounds nuw %struct.listIterator, ptr %36, i32 0, i32 4
  store ptr %35, ptr %37, align 8
  %38 = load ptr, ptr %3, align 8
  %39 = load ptr, ptr %2, align 8
  %40 = getelementptr inbounds nuw %struct.xlist, ptr %39, i32 0, i32 4
  store ptr %38, ptr %40, align 8
  br label %41

41:                                               ; preds = %23
  call void @llvm.lifetime.start.p0(i64 4, ptr %5) #6
  %42 = load ptr, ptr %2, align 8
  %43 = getelementptr inbounds nuw %struct.xlist, ptr %42, i32 0, i32 6
  %44 = call i32 @pthread_rwlock_unlock(ptr noundef %43) #6
  store i32 %44, ptr %5, align 4
  %45 = load i32, ptr %5, align 4
  %46 = icmp ne i32 %45, 0
  br i1 %46, label %47, label %50

47:                                               ; preds = %41
  %48 = load i32, ptr %5, align 4
  %49 = call ptr @__errno_location() #7
  store i32 %48, ptr %49, align 4
  call void (ptr, ...) @fatal_abort(ptr noundef @.str.3, ptr noundef @__func__.list_iterator_create) #8
  unreachable

50:                                               ; preds = %41
  call void @llvm.lifetime.end.p0(i64 4, ptr %5) #6
  br label %51

51:                                               ; preds = %50
  br label %52

52:                                               ; preds = %51
  %53 = load ptr, ptr %3, align 8
  call void @llvm.lifetime.end.p0(i64 8, ptr %3) #6
  ret ptr %53
}