; Function Attrs: nounwind uwtable
define dso_local noundef ptr @list_iterator_create(ptr noundef %0) #0 {
  %2 = tail call ptr @slurm_xcalloc(i64 noundef 1, i64 noundef 40, i1 noundef zeroext true, i1 noundef zeroext false, ptr noundef nonnull @.str, i32 noundef 788, ptr noundef nonnull @__func__.list_iterator_create) #9
  store i32 -559038721, ptr %2, align 8
  %3 = getelementptr inbounds nuw i8, ptr %2, i64 8
  store ptr %0, ptr %3, align 8
  %4 = getelementptr inbounds nuw i8, ptr %0, i64 40
  %5 = tail call i32 @pthread_rwlock_wrlock(ptr noundef nonnull %4) #9
  %.not = icmp eq i32 %5, 0
  br i1 %.not, label %8, label %6

6:                                                ; preds = %1
  %7 = tail call ptr @__errno_location() #10
  store i32 %5, ptr %7, align 4
  tail call void (ptr, ...) @fatal_abort(ptr noundef nonnull @.str.2, ptr noundef nonnull @__func__.list_iterator_create) #11
  unreachable

8:                                                ; preds = %1
  %9 = getelementptr inbounds nuw i8, ptr %0, i64 8
  %10 = load ptr, ptr %9, align 8
  %11 = getelementptr inbounds nuw i8, ptr %2, i64 16
  store ptr %10, ptr %11, align 8
  %12 = getelementptr inbounds nuw i8, ptr %2, i64 24
  store ptr %9, ptr %12, align 8
  %13 = getelementptr inbounds nuw i8, ptr %0, i64 24
  %14 = load ptr, ptr %13, align 8
  %15 = getelementptr inbounds nuw i8, ptr %2, i64 32
  store ptr %14, ptr %15, align 8
  store ptr %2, ptr %13, align 8
  %16 = tail call i32 @pthread_rwlock_unlock(ptr noundef nonnull %4) #9
  %.not18 = icmp eq i32 %16, 0
  br i1 %.not18, label %19, label %17

17:                                               ; preds = %8
  %18 = tail call ptr @__errno_location() #10
  store i32 %16, ptr %18, align 4
  tail call void (ptr, ...) @fatal_abort(ptr noundef nonnull @.str.3, ptr noundef nonnull @__func__.list_iterator_create) #11
  unreachable

19:                                               ; preds = %8
  ret ptr %2
}